
prime.o:     file format pe-x86-64


Disassembly of section .text:

0000000000000000 <scanf>:
   0:	55                   	push   rbp
   1:	53                   	push   rbx
   2:	48 83 ec 38          	sub    rsp,0x38
   6:	48 8d 6c 24 30       	lea    rbp,[rsp+0x30]
   b:	48 89 4d 20          	mov    QWORD PTR [rbp+0x20],rcx
   f:	48 89 55 28          	mov    QWORD PTR [rbp+0x28],rdx
  13:	4c 89 45 30          	mov    QWORD PTR [rbp+0x30],r8
  17:	4c 89 4d 38          	mov    QWORD PTR [rbp+0x38],r9
  1b:	48 8d 45 28          	lea    rax,[rbp+0x28]
  1f:	48 89 45 f0          	mov    QWORD PTR [rbp-0x10],rax
  23:	48 8b 5d f0          	mov    rbx,QWORD PTR [rbp-0x10]
  27:	b9 00 00 00 00       	mov    ecx,0x0
  2c:	48 8b 05 00 00 00 00 	mov    rax,QWORD PTR [rip+0x0]        # 33 <scanf+0x33>
  33:	ff d0                	call   rax
  35:	49 89 d8             	mov    r8,rbx
  38:	48 8b 55 20          	mov    rdx,QWORD PTR [rbp+0x20]
  3c:	48 89 c1             	mov    rcx,rax
  3f:	e8 00 00 00 00       	call   44 <scanf+0x44>
  44:	89 45 fc             	mov    DWORD PTR [rbp-0x4],eax
  47:	8b 45 fc             	mov    eax,DWORD PTR [rbp-0x4]
  4a:	48 83 c4 38          	add    rsp,0x38
  4e:	5b                   	pop    rbx
  4f:	5d                   	pop    rbp
  50:	c3                   	ret    

0000000000000051 <printf>:
  51:	55                   	push   rbp
  52:	53                   	push   rbx
  53:	48 83 ec 38          	sub    rsp,0x38
  57:	48 8d 6c 24 30       	lea    rbp,[rsp+0x30]
  5c:	48 89 4d 20          	mov    QWORD PTR [rbp+0x20],rcx
  60:	48 89 55 28          	mov    QWORD PTR [rbp+0x28],rdx
  64:	4c 89 45 30          	mov    QWORD PTR [rbp+0x30],r8
  68:	4c 89 4d 38          	mov    QWORD PTR [rbp+0x38],r9
  6c:	48 8d 45 28          	lea    rax,[rbp+0x28]
  70:	48 89 45 f0          	mov    QWORD PTR [rbp-0x10],rax
  74:	48 8b 5d f0          	mov    rbx,QWORD PTR [rbp-0x10]
  78:	b9 01 00 00 00       	mov    ecx,0x1
  7d:	48 8b 05 00 00 00 00 	mov    rax,QWORD PTR [rip+0x0]        # 84 <printf+0x33>
  84:	ff d0                	call   rax
  86:	49 89 d8             	mov    r8,rbx
  89:	48 8b 55 20          	mov    rdx,QWORD PTR [rbp+0x20]
  8d:	48 89 c1             	mov    rcx,rax
  90:	e8 00 00 00 00       	call   95 <printf+0x44>
  95:	89 45 fc             	mov    DWORD PTR [rbp-0x4],eax
  98:	8b 45 fc             	mov    eax,DWORD PTR [rbp-0x4]
  9b:	48 83 c4 38          	add    rsp,0x38
  9f:	5b                   	pop    rbx
  a0:	5d                   	pop    rbp
  a1:	c3                   	ret    

00000000000000a2 <main>:
  a2:	55                   	push   rbp
  a3:	48 89 e5             	mov    rbp,rsp
  a6:	48 83 ec 30          	sub    rsp,0x30
  aa:	e8 00 00 00 00       	call   af <main+0xd>
  af:	c7 45 f8 01 00 00 00 	mov    DWORD PTR [rbp-0x8],0x1
  b6:	48 8d 05 00 00 00 00 	lea    rax,[rip+0x0]        # bd <main+0x1b>
  bd:	48 89 c1             	mov    rcx,rax
  c0:	e8 8c ff ff ff       	call   51 <printf>
  c5:	48 8d 45 f4          	lea    rax,[rbp-0xc]
  c9:	48 89 c2             	mov    rdx,rax
  cc:	48 8d 05 11 00 00 00 	lea    rax,[rip+0x11]        # e4 <main+0x42>
  d3:	48 89 c1             	mov    rcx,rax
  d6:	e8 25 ff ff ff       	call   0 <scanf>
  db:	8b 45 f4             	mov    eax,DWORD PTR [rbp-0xc]
  de:	83 f8 01             	cmp    eax,0x1
  e1:	7f 07                	jg     ea <main+0x48>
  e3:	c7 45 f8 00 00 00 00 	mov    DWORD PTR [rbp-0x8],0x0
  ea:	c7 45 fc 02 00 00 00 	mov    DWORD PTR [rbp-0x4],0x2
  f1:	eb 1a                	jmp    10d <main+0x6b>
  f3:	8b 45 f4             	mov    eax,DWORD PTR [rbp-0xc]
  f6:	99                   	cdq    
  f7:	f7 7d fc             	idiv   DWORD PTR [rbp-0x4]
  fa:	89 d0                	mov    eax,edx
  fc:	85 c0                	test   eax,eax
  fe:	75 09                	jne    109 <main+0x67>
 100:	c7 45 f8 00 00 00 00 	mov    DWORD PTR [rbp-0x8],0x0
 107:	eb 0c                	jmp    115 <main+0x73>
 109:	83 45 fc 01          	add    DWORD PTR [rbp-0x4],0x1
 10d:	8b 45 f4             	mov    eax,DWORD PTR [rbp-0xc]
 110:	39 45 fc             	cmp    DWORD PTR [rbp-0x4],eax
 113:	7c de                	jl     f3 <main+0x51>
 115:	83 7d f8 01          	cmp    DWORD PTR [rbp-0x8],0x1
 119:	75 16                	jne    131 <main+0x8f>
 11b:	8b 45 f4             	mov    eax,DWORD PTR [rbp-0xc]
 11e:	89 c2                	mov    edx,eax
 120:	48 8d 05 14 00 00 00 	lea    rax,[rip+0x14]        # 13b <main+0x99>
 127:	48 89 c1             	mov    rcx,rax
 12a:	e8 22 ff ff ff       	call   51 <printf>
 12f:	eb 14                	jmp    145 <main+0xa3>
 131:	8b 45 f4             	mov    eax,DWORD PTR [rbp-0xc]
 134:	89 c2                	mov    edx,eax
 136:	48 8d 05 2b 00 00 00 	lea    rax,[rip+0x2b]        # 168 <main+0xc6>
 13d:	48 89 c1             	mov    rcx,rax
 140:	e8 0c ff ff ff       	call   51 <printf>
 145:	b8 00 00 00 00       	mov    eax,0x0
 14a:	48 83 c4 30          	add    rsp,0x30
 14e:	5d                   	pop    rbp
 14f:	c3                   	ret    
