
odd.o:     file format pe-x86-64


Disassembly of section .text:

0000000000000000 <scanf>:
   0:	55                   	push   rbp
   1:	53                   	push   rbx
   2:	48 83 ec 38          	sub    rsp,0x38
   6:	48 8d 6c 24 30       	lea    rbp,[rsp+0x30]
   b:	48 89 4d 20          	mov    QWORD PTR [rbp+0x20],rcx
   f:	48 89 55 28          	mov    QWORD PTR [rbp+0x28],rdx
  13:	4c 89 45 30          	mov    QWORD PTR [rbp+0x30],r8
  17:	4c 89 4d 38          	mov    QWORD PTR [rbp+0x38],r9
  1b:	48 8d 45 28          	lea    rax,[rbp+0x28]
  1f:	48 89 45 f0          	mov    QWORD PTR [rbp-0x10],rax
  23:	48 8b 5d f0          	mov    rbx,QWORD PTR [rbp-0x10]
  27:	b9 00 00 00 00       	mov    ecx,0x0
  2c:	48 8b 05 00 00 00 00 	mov    rax,QWORD PTR [rip+0x0]        # 33 <scanf+0x33>
  33:	ff d0                	call   rax
  35:	49 89 d8             	mov    r8,rbx
  38:	48 8b 55 20          	mov    rdx,QWORD PTR [rbp+0x20]
  3c:	48 89 c1             	mov    rcx,rax
  3f:	e8 00 00 00 00       	call   44 <scanf+0x44>
  44:	89 45 fc             	mov    DWORD PTR [rbp-0x4],eax
  47:	8b 45 fc             	mov    eax,DWORD PTR [rbp-0x4]
  4a:	48 83 c4 38          	add    rsp,0x38
  4e:	5b                   	pop    rbx
  4f:	5d                   	pop    rbp
  50:	c3                   	ret    

0000000000000051 <printf>:
  51:	55                   	push   rbp
  52:	53                   	push   rbx
  53:	48 83 ec 38          	sub    rsp,0x38
  57:	48 8d 6c 24 30       	lea    rbp,[rsp+0x30]
  5c:	48 89 4d 20          	mov    QWORD PTR [rbp+0x20],rcx
  60:	48 89 55 28          	mov    QWORD PTR [rbp+0x28],rdx
  64:	4c 89 45 30          	mov    QWORD PTR [rbp+0x30],r8
  68:	4c 89 4d 38          	mov    QWORD PTR [rbp+0x38],r9
  6c:	48 8d 45 28          	lea    rax,[rbp+0x28]
  70:	48 89 45 f0          	mov    QWORD PTR [rbp-0x10],rax
  74:	48 8b 5d f0          	mov    rbx,QWORD PTR [rbp-0x10]
  78:	b9 01 00 00 00       	mov    ecx,0x1
  7d:	48 8b 05 00 00 00 00 	mov    rax,QWORD PTR [rip+0x0]        # 84 <printf+0x33>
  84:	ff d0                	call   rax
  86:	49 89 d8             	mov    r8,rbx
  89:	48 8b 55 20          	mov    rdx,QWORD PTR [rbp+0x20]
  8d:	48 89 c1             	mov    rcx,rax
  90:	e8 00 00 00 00       	call   95 <printf+0x44>
  95:	89 45 fc             	mov    DWORD PTR [rbp-0x4],eax
  98:	8b 45 fc             	mov    eax,DWORD PTR [rbp-0x4]
  9b:	48 83 c4 38          	add    rsp,0x38
  9f:	5b                   	pop    rbx
  a0:	5d                   	pop    rbp
  a1:	c3                   	ret    

00000000000000a2 <main>:
  a2:	55                   	push   rbp
  a3:	48 89 e5             	mov    rbp,rsp
  a6:	48 83 ec 30          	sub    rsp,0x30
  aa:	e8 00 00 00 00       	call   af <main+0xd>
  af:	48 8d 05 00 00 00 00 	lea    rax,[rip+0x0]        # b6 <main+0x14>
  b6:	48 89 c1             	mov    rcx,rax
  b9:	e8 93 ff ff ff       	call   51 <printf>
  be:	48 8d 45 fc          	lea    rax,[rbp-0x4]
  c2:	48 89 c2             	mov    rdx,rax
  c5:	48 8d 05 11 00 00 00 	lea    rax,[rip+0x11]        # dd <main+0x3b>
  cc:	48 89 c1             	mov    rcx,rax
  cf:	e8 2c ff ff ff       	call   0 <scanf>
  d4:	8b 45 fc             	mov    eax,DWORD PTR [rbp-0x4]
  d7:	83 e0 01             	and    eax,0x1
  da:	85 c0                	test   eax,eax
  dc:	74 16                	je     f4 <main+0x52>
  de:	8b 45 fc             	mov    eax,DWORD PTR [rbp-0x4]
  e1:	89 c2                	mov    edx,eax
  e3:	48 8d 05 14 00 00 00 	lea    rax,[rip+0x14]        # fe <main+0x5c>
  ea:	48 89 c1             	mov    rcx,rax
  ed:	e8 5f ff ff ff       	call   51 <printf>
  f2:	eb 14                	jmp    108 <main+0x66>
  f4:	8b 45 fc             	mov    eax,DWORD PTR [rbp-0x4]
  f7:	89 c2                	mov    edx,eax
  f9:	48 8d 05 2a 00 00 00 	lea    rax,[rip+0x2a]        # 12a <main+0x88>
 100:	48 89 c1             	mov    rcx,rax
 103:	e8 49 ff ff ff       	call   51 <printf>
 108:	b8 00 00 00 00       	mov    eax,0x0
 10d:	48 83 c4 30          	add    rsp,0x30
 111:	5d                   	pop    rbp
 112:	c3                   	ret    
 113:	90                   	nop
 114:	90                   	nop
 115:	90                   	nop
 116:	90                   	nop
 117:	90                   	nop
 118:	90                   	nop
 119:	90                   	nop
 11a:	90                   	nop
 11b:	90                   	nop
 11c:	90                   	nop
 11d:	90                   	nop
 11e:	90                   	nop
 11f:	90                   	nop
